; Function Attrs: mustprogress uwtable
define void @_Z17do_pbc_first_mtopP8_IO_FILE7PbcTypebPA3_KfS4_PK10gmx_mtop_tN3gmx8ArrayRefINS8_11BasicVectorIfEEEESC_(ptr noundef %0, i32 noundef %1, i1 noundef zeroext %2, ptr noundef readonly captures(none) %3, ptr noundef %4, ptr noundef readonly captures(none) %5, ptr noundef readonly byval(%"class.gmx::ArrayRef") align 8 captures(none) %6, ptr noundef readonly byval(%"class.gmx::ArrayRef") align 8 captures(none) %7) local_unnamed_addr #1 {
  %9 = alloca %"class.gmx::ArrayRef", align 8
  %10 = alloca %"class.gmx::ArrayRef", align 8
  %11 = load ptr, ptr %6, align 8, !tbaa !131
  store ptr %11, ptr %9, align 8, !tbaa !131
  %12 = getelementptr inbounds nuw i8, ptr %9, i64 8
  %13 = getelementptr inbounds nuw i8, ptr %6, i64 8
  %14 = load ptr, ptr %13, align 8, !tbaa !131
  %15 = ptrtoint ptr %14 to i64
  %16 = ptrtoint ptr %11 to i64
  %17 = sub i64 %15, %16
  %18 = getelementptr inbounds nuw i8, ptr %11, i64 %17
  store ptr %18, ptr %12, align 8, !tbaa !131
  %19 = load ptr, ptr %7, align 8, !tbaa !131
  store ptr %19, ptr %10, align 8, !tbaa !131
  %20 = getelementptr inbounds nuw i8, ptr %10, i64 8
  %21 = getelementptr inbounds nuw i8, ptr %7, i64 8
  %22 = load ptr, ptr %21, align 8, !tbaa !131
  %23 = ptrtoint ptr %22 to i64
  %24 = ptrtoint ptr %19 to i64
  %25 = sub i64 %23, %24
  %26 = getelementptr inbounds nuw i8, ptr %19, i64 %25
  store ptr %26, ptr %20, align 8, !tbaa !131
  tail call fastcc void @_ZL15low_do_pbc_mtopP8_IO_FILE7PbcTypebPA3_KfS4_PK10gmx_mtop_tN3gmx8ArrayRefINS8_11BasicVectorIfEEEESC_b(ptr noundef %0, i32 noundef %1, i1 noundef zeroext %2, ptr noundef %3, ptr noundef %4, ptr noundef %5, ptr noundef nonnull byval(%"class.gmx::ArrayRef") align 8 %9, ptr noundef nonnull byval(%"class.gmx::ArrayRef") align 8 %10, i1 noundef zeroext true)
  ret void
}